; Function Attrs: mustprogress uwtable
define void @_ZN32pxrInternal_v0_24__pxrReserved__17UsdSchemaRegistry20GetAPISchemaTypeNameERKNS_6TfTypeE(ptr dead_on_unwind noalias nocapture writable writeonly sret(%"class.pxrInternal_v0_24__pxrReserved__::TfToken") align 8 %0, ptr nocapture noundef nonnull readonly align 8 dereferenceable(8) %1) local_unnamed_addr #0 align 2 personality ptr @__gxx_personality_v0 {
  %3 = tail call noundef ptr @_ZN32pxrInternal_v0_24__pxrReserved__17UsdSchemaRegistry14FindSchemaInfoERKNS_6TfTypeE(ptr noundef nonnull align 8 dereferenceable(8) %1)
  %.not = icmp eq ptr %3, null
  br i1 %.not, label %_ZN32pxrInternal_v0_24__pxrReserved__7TfTokenC2ERKS0_.exit.sink.split, label %4

4:                                                ; preds = %2
  %5 = getelementptr inbounds nuw i8, ptr %3, i64 28
  %6 = load i32, ptr %5, align 4
  %7 = add i32 %6, -4
  %spec.select.i = icmp ult i32 %7, 3
  br i1 %spec.select.i, label %8, label %_ZN32pxrInternal_v0_24__pxrReserved__7TfTokenC2ERKS0_.exit.sink.split

8:                                                ; preds = %4
  %9 = load i64, ptr %3, align 8
  store i64 %9, ptr %0, align 8
  %10 = and i64 %9, 7
  %.not.i.i = icmp eq i64 %10, 0
  br i1 %.not.i.i, label %_ZN32pxrInternal_v0_24__pxrReserved__7TfTokenC2ERKS0_.exit, label %11

11:                                               ; preds = %8
  %12 = and i64 %9, -8
  %13 = inttoptr i64 %12 to ptr
  %14 = atomicrmw add ptr %13, i32 2 monotonic, align 4
  %15 = and i32 %14, 1
  %.not1.i.i = icmp eq i32 %15, 0
  br i1 %.not1.i.i, label %_ZN32pxrInternal_v0_24__pxrReserved__7TfTokenC2ERKS0_.exit.sink.split, label %_ZN32pxrInternal_v0_24__pxrReserved__7TfTokenC2ERKS0_.exit

_ZN32pxrInternal_v0_24__pxrReserved__7TfTokenC2ERKS0_.exit.sink.split: ; preds = %2, %4, %11
  %.sink = phi ptr [ %13, %11 ], [ null, %4 ], [ null, %2 ]
  store ptr %.sink, ptr %0, align 8
  br label %_ZN32pxrInternal_v0_24__pxrReserved__7TfTokenC2ERKS0_.exit

_ZN32pxrInternal_v0_24__pxrReserved__7TfTokenC2ERKS0_.exit: ; preds = %_ZN32pxrInternal_v0_24__pxrReserved__7TfTokenC2ERKS0_.exit.sink.split, %11, %8
  ret void
}